; Function Attrs: mustprogress nounwind uwtable
define void @_ZN7glslang7TShader19setAutoMapLocationsEb(ptr noundef nonnull readonly align 8 captures(none) dereferenceable(165) %0, i1 noundef zeroext %1) local_unnamed_addr #3 align 2 {
  %3 = getelementptr inbounds nuw i8, ptr %0, i64 32
  %4 = load ptr, ptr %3, align 8
  %5 = zext i1 %1 to i8
  %6 = getelementptr inbounds nuw i8, ptr %4, i64 1233
  store i8 %5, ptr %6, align 1
  br i1 %1, label %7, label %_ZN7glslang13TIntermediate19setAutoMapLocationsEb.exit

7:                                                ; preds = %2
  %8 = getelementptr inbounds nuw i8, ptr %4, i64 2000
  tail call void @_ZN7glslang10TProcesses10addProcessEPKc(ptr noundef nonnull align 8 dereferenceable(24) %8, ptr noundef nonnull @.str.69)
  br label %_ZN7glslang13TIntermediate19setAutoMapLocationsEb.exit

_ZN7glslang13TIntermediate19setAutoMapLocationsEb.exit: ; preds = %2, %7
  ret void
}